; Function Attrs: nounwind uwtable
define internal noundef i32 @file_read(ptr noundef readonly captures(none) %0, ptr noundef captures(address_is_null) %1, i32 noundef %2) #0 {
  %4 = getelementptr inbounds nuw i8, ptr %0, i64 40
  %5 = load i32, ptr %4, align 8, !tbaa !7
  %6 = icmp ne i32 %5, 0
  %7 = icmp ne ptr %1, null
  %or.cond = and i1 %7, %6
  br i1 %or.cond, label %8, label %21

8:                                                ; preds = %3
  %9 = sext i32 %2 to i64
  %10 = getelementptr inbounds nuw i8, ptr %0, i64 64
  %11 = load ptr, ptr %10, align 8, !tbaa !18
  %12 = tail call i64 @fread(ptr noundef nonnull %1, i64 noundef 1, i64 noundef %9, ptr noundef %11)
  %13 = trunc i64 %12 to i32
  %14 = icmp eq i32 %13, 0
  br i1 %14, label %15, label %21

15:                                               ; preds = %8
  %16 = load ptr, ptr %10, align 8, !tbaa !18
  %17 = tail call i32 @ferror(ptr noundef %16) #10
  %.not = icmp eq i32 %17, 0
  br i1 %.not, label %21, label %18

18:                                               ; preds = %15
  tail call void @ERR_new() #10
  tail call void @ERR_set_debug(ptr noundef nonnull @.str, i32 noundef 148, ptr noundef nonnull @__func__.file_read) #10
  %19 = tail call ptr @__errno_location() #12
  %20 = load i32, ptr %19, align 4, !tbaa !3
  tail call void (i32, i32, ptr, ...) @ERR_set_error(i32 noundef 2, i32 noundef %20, ptr noundef nonnull @.str.4) #10
  tail call void @ERR_new() #10
  tail call void @ERR_set_debug(ptr noundef nonnull @.str, i32 noundef 150, ptr noundef nonnull @__func__.file_read) #10
  tail call void (i32, i32, ptr, ...) @ERR_set_error(i32 noundef 32, i32 noundef 524290, ptr noundef null) #10
  br label %21

21:                                               ; preds = %8, %15, %18, %3
  %.0 = phi i32 [ -1, %18 ], [ 0, %15 ], [ %13, %8 ], [ 0, %3 ]
  ret i32 %.0
}